; Function Attrs: mustprogress nofree norecurse nosync nounwind willreturn memory(read, argmem: readwrite, inaccessiblemem: none) uwtable
define noundef i32 @H5HF_stat_info(ptr noundef readonly captures(none) %0, ptr noundef writeonly captures(none) %1) local_unnamed_addr #0 {
  %3 = load i8, ptr @H5HF_init_g, align 1, !tbaa !3, !range !7, !noundef !8
  %4 = trunc nuw i8 %3 to i1
  %5 = load i8, ptr @H5_libterm_g, align 1, !range !7
  %6 = trunc nuw i8 %5 to i1
  %7 = xor i1 %6, true
  %8 = select i1 %4, i1 true, i1 %7
  br i1 %8, label %9, label %37, !prof !9

9:                                                ; preds = %2
  %10 = load ptr, ptr %0, align 8, !tbaa !10
  %11 = getelementptr inbounds nuw i8, ptr %10, i64 504
  %12 = load i64, ptr %11, align 8, !tbaa !15
  store i64 %12, ptr %1, align 8, !tbaa !36
  %13 = getelementptr inbounds nuw i8, ptr %10, i64 512
  %14 = load i64, ptr %13, align 8, !tbaa !38
  %15 = getelementptr inbounds nuw i8, ptr %1, i64 8
  store i64 %14, ptr %15, align 8, !tbaa !39
  %16 = getelementptr inbounds nuw i8, ptr %10, i64 520
  %17 = load i64, ptr %16, align 8, !tbaa !40
  %18 = getelementptr inbounds nuw i8, ptr %1, i64 16
  store i64 %17, ptr %18, align 8, !tbaa !41
  %19 = getelementptr inbounds nuw i8, ptr %10, i64 528
  %20 = load i64, ptr %19, align 8, !tbaa !42
  %21 = getelementptr inbounds nuw i8, ptr %1, i64 32
  store i64 %20, ptr %21, align 8, !tbaa !43
  %22 = getelementptr inbounds nuw i8, ptr %10, i64 376
  %23 = load i64, ptr %22, align 8, !tbaa !44
  %24 = getelementptr inbounds nuw i8, ptr %1, i64 24
  store i64 %23, ptr %24, align 8, !tbaa !45
  %25 = getelementptr inbounds nuw i8, ptr %10, i64 536
  %26 = load i64, ptr %25, align 8, !tbaa !46
  %27 = getelementptr inbounds nuw i8, ptr %1, i64 40
  store i64 %26, ptr %27, align 8, !tbaa !47
  %28 = getelementptr inbounds nuw i8, ptr %10, i64 544
  %29 = load i64, ptr %28, align 8, !tbaa !48
  %30 = getelementptr inbounds nuw i8, ptr %1, i64 48
  store i64 %29, ptr %30, align 8, !tbaa !49
  %31 = getelementptr inbounds nuw i8, ptr %10, i64 552
  %32 = load i64, ptr %31, align 8, !tbaa !50
  %33 = getelementptr inbounds nuw i8, ptr %1, i64 56
  store i64 %32, ptr %33, align 8, !tbaa !51
  %34 = getelementptr inbounds nuw i8, ptr %10, i64 560
  %35 = load i64, ptr %34, align 8, !tbaa !52
  %36 = getelementptr inbounds nuw i8, ptr %1, i64 64
  store i64 %35, ptr %36, align 8, !tbaa !53
  br label %37

37:                                               ; preds = %9, %2
  ret i32 0
}